target datalayout = "e-m:e-p270:32:32-p271:32:32-p272:64:64-i64:64-i128:128-f80:128-n8:16:32:64-S128"
target triple = "x86_64-pc-linux-gnu"

%struct.AVComponentDescriptor = type { i32, i32, i32, i32, i32 }
%struct.AVPixFmtDescriptor = type { ptr, i8, i8, i8, i64, [4 x %struct.AVComponentDescriptor], ptr }

; Function Attrs: nounwind uwtable
define i32 @av_pix_fmt_desc_get_id(ptr noundef %0) #0 {
  %2 = alloca i32, align 4
  %3 = alloca ptr, align 8
  store ptr %0, ptr %3, align 8, !tbaa !13
  %4 = load ptr, ptr %3, align 8, !tbaa !13
  %5 = icmp ult ptr %4, @av_pix_fmt_descriptors
  br i1 %5, label %9, label %6

6:                                                ; preds = %1
  %7 = load ptr, ptr %3, align 8, !tbaa !13
  %8 = icmp uge ptr %7, getelementptr inbounds nuw (%struct.AVPixFmtDescriptor, ptr @av_pix_fmt_descriptors, i64 258)
  br i1 %8, label %9, label %10

9:                                                ; preds = %6, %1
  store i32 -1, ptr %2, align 4
  br label %16

10:                                               ; preds = %6
  %11 = load ptr, ptr %3, align 8, !tbaa !13
  %12 = ptrtoint ptr %11 to i64
  %13 = sub i64 %12, ptrtoint (ptr @av_pix_fmt_descriptors to i64)
  %14 = sdiv exact i64 %13, 112
  %15 = trunc i64 %14 to i32
  store i32 %15, ptr %2, align 4
  br label %16

16:                                               ; preds = %10, %9
  %17 = load i32, ptr %2, align 4
  ret i32 %17
}