; Function Attrs: mustprogress nofree norecurse nosync nounwind willreturn memory(none) uwtable
define i32 @av_pix_fmt_desc_get_id(ptr noundef %0) local_unnamed_addr #3 {
  %2 = icmp ult ptr %0, @av_pix_fmt_descriptors
  %3 = icmp uge ptr %0, getelementptr inbounds nuw (i8, ptr @av_pix_fmt_descriptors, i64 28896)
  %or.cond = select i1 %2, i1 true, i1 %3
  br i1 %or.cond, label %9, label %4

4:                                                ; preds = %1
  %5 = ptrtoint ptr %0 to i64
  %6 = sub i64 %5, ptrtoint (ptr @av_pix_fmt_descriptors to i64)
  %7 = sdiv exact i64 %6, 112
  %8 = trunc i64 %7 to i32
  br label %9

9:                                                ; preds = %1, %4
  %.0 = phi i32 [ %8, %4 ], [ -1, %1 ]
  ret i32 %.0
}